; Function Attrs: uwtable
define noundef zeroext i1 @_ZThn856_N11colvarproxy12io_availableEv(ptr noundef %0) unnamed_addr #7 align 2 {
  %2 = getelementptr inbounds i8, ptr %0, i64 -88
  %3 = load ptr, ptr %2, align 8, !tbaa !36
  %4 = getelementptr inbounds nuw i8, ptr %3, i64 16
  %5 = load ptr, ptr %4, align 8
  %6 = tail call noundef i32 %5(ptr noundef nonnull align 8 dereferenceable(24) %2)
  %7 = icmp eq i32 %6, 0
  br i1 %7, label %8, label %14

8:                                                ; preds = %1
  %9 = load ptr, ptr %2, align 8, !tbaa !36
  %10 = getelementptr inbounds nuw i8, ptr %9, i64 48
  %11 = load ptr, ptr %10, align 8
  %12 = tail call noundef i32 %11(ptr noundef nonnull align 8 dereferenceable(24) %2)
  %13 = icmp eq i32 %12, 0
  br i1 %13, label %_ZN11colvarproxy12io_availableEv.exit, label %14

14:                                               ; preds = %8, %1
  %15 = load ptr, ptr %2, align 8, !tbaa !36
  %16 = getelementptr inbounds nuw i8, ptr %15, i64 16
  %17 = load ptr, ptr %16, align 8
  %18 = tail call noundef i32 %17(ptr noundef nonnull align 8 dereferenceable(24) %2)
  %19 = icmp ne i32 %18, 0
  br label %_ZN11colvarproxy12io_availableEv.exit

_ZN11colvarproxy12io_availableEv.exit:            ; preds = %8, %14
  %20 = phi i1 [ true, %8 ], [ %19, %14 ]
  ret i1 %20
}